target datalayout = "e-m:e-p270:32:32-p271:32:32-p272:64:64-i64:64-i128:128-f80:128-n8:16:32:64-S128"
target triple = "x86_64-pc-linux-gnu"

%struct.pmix_proc = type { [256 x i8], i32 }

; Function Attrs: inlinehint nounwind uwtable
define internal void @pmix_strncpy(ptr noundef %0, ptr noundef %1, i64 noundef %2) #3 {
  %4 = alloca ptr, align 8
  %5 = alloca ptr, align 8
  %6 = alloca i64, align 8
  %7 = alloca i64, align 8
  store ptr %0, ptr %4, align 8, !tbaa !33
  store ptr %1, ptr %5, align 8, !tbaa !33
  store i64 %2, ptr %6, align 8, !tbaa !25
  call void @llvm.lifetime.start.p0(i64 8, ptr %7) #11
  store i64 0, ptr %7, align 8, !tbaa !25
  br label %8

8:                                                ; preds = %22, %3
  %9 = load i64, ptr %7, align 8, !tbaa !25
  %10 = load i64, ptr %6, align 8, !tbaa !25
  %11 = icmp ult i64 %9, %10
  br i1 %11, label %12, label %29

12:                                               ; preds = %8
  %13 = load ptr, ptr %5, align 8, !tbaa !33
  %14 = load i8, ptr %13, align 1, !tbaa !59
  %15 = load ptr, ptr %4, align 8, !tbaa !33
  store i8 %14, ptr %15, align 1, !tbaa !59
  %16 = load ptr, ptr %5, align 8, !tbaa !33
  %17 = load i8, ptr %16, align 1, !tbaa !59
  %18 = sext i8 %17 to i32
  %19 = icmp eq i32 0, %18
  br i1 %19, label %20, label %21

20:                                               ; preds = %12
  br label %29

21:                                               ; preds = %12
  br label %22

22:                                               ; preds = %21
  %23 = load i64, ptr %7, align 8, !tbaa !25
  %24 = add i64 %23, 1
  store i64 %24, ptr %7, align 8, !tbaa !25
  %25 = load ptr, ptr %5, align 8, !tbaa !33
  %26 = getelementptr inbounds nuw i8, ptr %25, i32 1
  store ptr %26, ptr %5, align 8, !tbaa !33
  %27 = load ptr, ptr %4, align 8, !tbaa !33
  %28 = getelementptr inbounds nuw i8, ptr %27, i32 1
  store ptr %28, ptr %4, align 8, !tbaa !33
  br label %8, !llvm.loop !60

29:                                               ; preds = %20, %8
  %30 = load ptr, ptr %4, align 8, !tbaa !33
  store i8 0, ptr %30, align 1, !tbaa !59
  call void @llvm.lifetime.end.p0(i64 8, ptr %7) #11
  ret void
}

; Function Attrs: nounwind uwtable
define i32 @pmix_bfrops_base_copy_proc(ptr noundef %0, ptr noundef %1, i16 noundef zeroext %2) #0 {
  %4 = alloca i32, align 4
  %5 = alloca ptr, align 8
  %6 = alloca ptr, align 8
  %7 = alloca i16, align 2
  store ptr %0, ptr %5, align 8, !tbaa !93
  store ptr %1, ptr %6, align 8, !tbaa !95
  store i16 %2, ptr %7, align 2, !tbaa !9
  %8 = call noalias ptr @malloc(i64 noundef 260) #12
  %9 = load ptr, ptr %5, align 8, !tbaa !93
  store ptr %8, ptr %9, align 8, !tbaa !95
  %10 = load ptr, ptr %5, align 8, !tbaa !93
  %11 = load ptr, ptr %10, align 8, !tbaa !95
  %12 = icmp eq ptr null, %11
  br i1 %12, label %13, label %14

13:                                               ; preds = %3
  store i32 -29, ptr %4, align 4
  br label %28

14:                                               ; preds = %3
  %15 = load ptr, ptr %5, align 8, !tbaa !93
  %16 = load ptr, ptr %15, align 8, !tbaa !95
  %17 = getelementptr inbounds nuw %struct.pmix_proc, ptr %16, i32 0, i32 0
  %18 = getelementptr inbounds [256 x i8], ptr %17, i64 0, i64 0
  %19 = load ptr, ptr %6, align 8, !tbaa !95
  %20 = getelementptr inbounds nuw %struct.pmix_proc, ptr %19, i32 0, i32 0
  %21 = getelementptr inbounds [256 x i8], ptr %20, i64 0, i64 0
  call void @pmix_strncpy(ptr noundef %18, ptr noundef %21, i64 noundef 255)
  %22 = load ptr, ptr %6, align 8, !tbaa !95
  %23 = getelementptr inbounds nuw %struct.pmix_proc, ptr %22, i32 0, i32 1
  %24 = load i32, ptr %23, align 4, !tbaa !97
  %25 = load ptr, ptr %5, align 8, !tbaa !93
  %26 = load ptr, ptr %25, align 8, !tbaa !95
  %27 = getelementptr inbounds nuw %struct.pmix_proc, ptr %26, i32 0, i32 1
  store i32 %24, ptr %27, align 4, !tbaa !97
  store i32 0, ptr %4, align 4
  br label %28

28:                                               ; preds = %14, %13
  %29 = load i32, ptr %4, align 4
  ret i32 %29
}