; Function Attrs: nofree nounwind memory(write, argmem: readwrite, inaccessiblemem: readwrite) uwtable
define range(i32 -29, 1) i32 @pmix_bfrops_base_copy_proc(ptr noundef captures(none) initializes((0, 8)) %0, ptr noundef readonly captures(none) %1, i16 noundef zeroext %2) local_unnamed_addr #9 {
  %4 = tail call noalias dereferenceable_or_null(260) ptr @malloc(i64 noundef 260) #25
  store ptr %4, ptr %0, align 8, !tbaa !74
  %5 = icmp eq ptr %4, null
  br i1 %5, label %16, label %.preheader

.preheader:                                       ; preds = %3, %8
  %.012.i = phi i64 [ %9, %8 ], [ 0, %3 ]
  %.0811.i = phi ptr [ %11, %8 ], [ %4, %3 ]
  %.0910.i = phi ptr [ %10, %8 ], [ %1, %3 ]
  %6 = load i8, ptr %.0910.i, align 1, !tbaa !48
  store i8 %6, ptr %.0811.i, align 1, !tbaa !48
  %7 = icmp eq i8 %6, 0
  br i1 %7, label %pmix_strncpy.exit, label %8

8:                                                ; preds = %.preheader
  %9 = add nuw nsw i64 %.012.i, 1
  %10 = getelementptr inbounds nuw i8, ptr %.0910.i, i64 1
  %11 = getelementptr inbounds nuw i8, ptr %.0811.i, i64 1
  %exitcond.not.i = icmp eq i64 %9, 255
  br i1 %exitcond.not.i, label %pmix_strncpy.exit, label %.preheader, !llvm.loop !49

pmix_strncpy.exit:                                ; preds = %.preheader, %8
  %.08.lcssa.i = phi ptr [ %.0811.i, %.preheader ], [ %11, %8 ]
  store i8 0, ptr %.08.lcssa.i, align 1, !tbaa !48
  %12 = getelementptr inbounds nuw i8, ptr %1, i64 256
  %13 = load i32, ptr %12, align 4, !tbaa !76
  %14 = load ptr, ptr %0, align 8, !tbaa !74
  %15 = getelementptr inbounds nuw i8, ptr %14, i64 256
  store i32 %13, ptr %15, align 4, !tbaa !76
  br label %16

16:                                               ; preds = %3, %pmix_strncpy.exit
  %.0 = phi i32 [ 0, %pmix_strncpy.exit ], [ -29, %3 ]
  ret i32 %.0
}